; Function Attrs: nounwind uwtable
define internal range(i32 -1163346256, 1) i32 @xvag_read_header(ptr noundef %0) #1 {
  %2 = getelementptr inbounds nuw i8, ptr %0, i64 32
  %3 = load ptr, ptr %2, align 8, !tbaa !11
  %4 = tail call i64 @avio_skip(ptr noundef %3, i64 noundef 4) #5
  %5 = tail call ptr @avformat_new_stream(ptr noundef %0, ptr noundef null) #5
  %.not = icmp eq ptr %5, null
  br i1 %.not, label %80, label %6

6:                                                ; preds = %1
  %7 = getelementptr inbounds nuw i8, ptr %5, i64 16
  %8 = load ptr, ptr %7, align 8, !tbaa !26
  store i32 1, ptr %8, align 8, !tbaa !33
  %9 = load ptr, ptr %2, align 8, !tbaa !11
  %10 = tail call i32 @avio_rl32(ptr noundef %9) #5
  %11 = tail call i32 @llvm.bswap.i32(i32 %10)
  %12 = icmp ugt i32 %10, %11
  %13 = load ptr, ptr %2, align 8, !tbaa !11
  %14 = tail call i64 @avio_skip(ptr noundef %13, i64 noundef 28) #5
  %15 = load ptr, ptr %2, align 8, !tbaa !11
  %16 = getelementptr inbounds nuw i8, ptr %5, i64 48
  br i1 %12, label %17, label %32

17:                                               ; preds = %6
  %18 = tail call i32 @avio_rb32(ptr noundef %15) #5
  %19 = load ptr, ptr %2, align 8, !tbaa !11
  %20 = tail call i32 @avio_rb32(ptr noundef %19) #5
  %21 = load ptr, ptr %7, align 8, !tbaa !26
  %22 = getelementptr inbounds nuw i8, ptr %21, i64 132
  store i32 %20, ptr %22, align 4, !tbaa !36
  %23 = load ptr, ptr %2, align 8, !tbaa !11
  %24 = tail call i64 @avio_skip(ptr noundef %23, i64 noundef 4) #5
  %25 = load ptr, ptr %2, align 8, !tbaa !11
  %26 = tail call i32 @avio_rb32(ptr noundef %25) #5
  %27 = zext i32 %26 to i64
  store i64 %27, ptr %16, align 8, !tbaa !37
  %28 = load ptr, ptr %2, align 8, !tbaa !11
  %29 = tail call i64 @avio_skip(ptr noundef %28, i64 noundef 8) #5
  %30 = load ptr, ptr %2, align 8, !tbaa !11
  %31 = tail call i32 @avio_rb32(ptr noundef %30) #5
  br label %47

32:                                               ; preds = %6
  %33 = tail call i32 @avio_rl32(ptr noundef %15) #5
  %34 = load ptr, ptr %2, align 8, !tbaa !11
  %35 = tail call i32 @avio_rl32(ptr noundef %34) #5
  %36 = load ptr, ptr %7, align 8, !tbaa !26
  %37 = getelementptr inbounds nuw i8, ptr %36, i64 132
  store i32 %35, ptr %37, align 4, !tbaa !36
  %38 = load ptr, ptr %2, align 8, !tbaa !11
  %39 = tail call i64 @avio_skip(ptr noundef %38, i64 noundef 4) #5
  %40 = load ptr, ptr %2, align 8, !tbaa !11
  %41 = tail call i32 @avio_rl32(ptr noundef %40) #5
  %42 = zext i32 %41 to i64
  store i64 %42, ptr %16, align 8, !tbaa !37
  %43 = load ptr, ptr %2, align 8, !tbaa !11
  %44 = tail call i64 @avio_skip(ptr noundef %43, i64 noundef 8) #5
  %45 = load ptr, ptr %2, align 8, !tbaa !11
  %46 = tail call i32 @avio_rl32(ptr noundef %45) #5
  br label %47

47:                                               ; preds = %32, %17
  %.sink = phi i32 [ %46, %32 ], [ %31, %17 ]
  %.049 = phi i32 [ %10, %32 ], [ %11, %17 ]
  %.048 = phi i32 [ %33, %32 ], [ %18, %17 ]
  %48 = load ptr, ptr %7, align 8, !tbaa !26
  %49 = getelementptr inbounds nuw i8, ptr %48, i64 152
  store i32 %.sink, ptr %49, align 8, !tbaa !38
  %50 = icmp slt i32 %.sink, 1
  br i1 %50, label %80, label %51

51:                                               ; preds = %47
  %52 = getelementptr inbounds nuw i8, ptr %48, i64 132
  %53 = load i32, ptr %52, align 4, !tbaa !36
  %54 = add i32 %53, -513
  %or.cond = icmp ult i32 %54, -512
  br i1 %or.cond, label %80, label %55

55:                                               ; preds = %51
  %cond = icmp eq i32 %.048, 28
  br i1 %cond, label %56, label %68

56:                                               ; preds = %55
  %57 = getelementptr inbounds nuw i8, ptr %48, i64 4
  store i32 69669, ptr %57, align 4, !tbaa !39
  %58 = shl nuw nsw i32 %53, 4
  %59 = getelementptr inbounds nuw i8, ptr %48, i64 156
  store i32 %58, ptr %59, align 4, !tbaa !40
  %60 = load ptr, ptr %2, align 8, !tbaa !11
  %61 = zext i32 %.049 to i64
  %62 = tail call i64 @avio_seek(ptr noundef %60, i64 noundef 0, i32 noundef 1) #5
  %63 = sub nsw i64 %61, %62
  %64 = tail call i64 @avio_skip(ptr noundef %60, i64 noundef %63) #5
  %65 = load ptr, ptr %2, align 8, !tbaa !11
  %66 = tail call i32 @avio_rb16(ptr noundef %65) #5
  %67 = icmp eq i32 %66, 65531
  br i1 %67, label %69, label %74

68:                                               ; preds = %55
  tail call void (ptr, ptr, ...) @avpriv_request_sample(ptr noundef nonnull %0, ptr noundef nonnull @.str.4, i32 noundef %.048) #5
  br label %80

69:                                               ; preds = %56
  %70 = load ptr, ptr %7, align 8, !tbaa !26
  %71 = getelementptr inbounds nuw i8, ptr %70, i64 4
  store i32 86017, ptr %71, align 4, !tbaa !39
  %72 = getelementptr inbounds nuw i8, ptr %70, i64 156
  store i32 4096, ptr %72, align 4, !tbaa !40
  %73 = getelementptr inbounds nuw i8, ptr %5, i64 808
  store i32 5, ptr %73, align 8, !tbaa !41
  br label %74

74:                                               ; preds = %69, %56
  %75 = load ptr, ptr %2, align 8, !tbaa !11
  %76 = tail call i64 @avio_skip(ptr noundef %75, i64 noundef -2) #5
  %77 = load ptr, ptr %7, align 8, !tbaa !26
  %78 = getelementptr inbounds nuw i8, ptr %77, i64 152
  %79 = load i32, ptr %78, align 8, !tbaa !38
  tail call void @avpriv_set_pts_info(ptr noundef nonnull %5, i32 noundef 64, i32 noundef 1, i32 noundef %79) #5
  br label %80

80:                                               ; preds = %51, %47, %1, %74, %68
  %.0 = phi i32 [ 0, %74 ], [ -1163346256, %68 ], [ -12, %1 ], [ -1094995529, %47 ], [ -1094995529, %51 ]
  ret i32 %.0
}